target datalayout = "e-m:e-p270:32:32-p271:32:32-p272:64:64-i64:64-i128:128-f80:128-n8:16:32:64-S128"
target triple = "x86_64-pc-linux-gnu"

%struct._PyUnicodeWriter = type { ptr, ptr, i32, i32, i64, i64, i64, i32, i8, i8 }

; Function Attrs: nounwind uwtable
define dso_local i32 @PyUnicodeWriter_WriteUTF8(ptr noundef %0, ptr noundef %1, i64 noundef %2) #0 {
  %4 = alloca ptr, align 8
  %5 = alloca ptr, align 8
  %6 = alloca i64, align 8
  %7 = alloca ptr, align 8
  %8 = alloca i64, align 8
  %9 = alloca i32, align 4
  store ptr %0, ptr %4, align 8, !tbaa !230
  store ptr %1, ptr %5, align 8, !tbaa !189
  store i64 %2, ptr %6, align 8, !tbaa !185
  %10 = load i64, ptr %6, align 8, !tbaa !185
  %11 = icmp slt i64 %10, 0
  br i1 %11, label %12, label %15

12:                                               ; preds = %3
  %13 = load ptr, ptr %5, align 8, !tbaa !189
  %14 = call i64 @strlen(ptr noundef %13) #13
  store i64 %14, ptr %6, align 8, !tbaa !185
  br label %15

15:                                               ; preds = %12, %3
  call void @llvm.lifetime.start.p0(i64 8, ptr %7) #12
  %16 = load ptr, ptr %4, align 8, !tbaa !230
  store ptr %16, ptr %7, align 8, !tbaa !180
  call void @llvm.lifetime.start.p0(i64 8, ptr %8) #12
  %17 = load ptr, ptr %7, align 8, !tbaa !180
  %18 = getelementptr inbounds nuw %struct._PyUnicodeWriter, ptr %17, i32 0, i32 5
  %19 = load i64, ptr %18, align 8, !tbaa !235
  store i64 %19, ptr %8, align 8, !tbaa !185
  call void @llvm.lifetime.start.p0(i64 4, ptr %9) #12
  %20 = load ptr, ptr %7, align 8, !tbaa !180
  %21 = load ptr, ptr %5, align 8, !tbaa !189
  %22 = load i64, ptr %6, align 8, !tbaa !185
  %23 = call i32 @unicode_decode_utf8_writer(ptr noundef %20, ptr noundef %21, i64 noundef %22, i32 noundef 1, ptr noundef null, ptr noundef null)
  store i32 %23, ptr %9, align 4, !tbaa !190
  %24 = load i32, ptr %9, align 4, !tbaa !190
  %25 = icmp slt i32 %24, 0
  br i1 %25, label %26, label %30

26:                                               ; preds = %15
  %27 = load i64, ptr %8, align 8, !tbaa !185
  %28 = load ptr, ptr %7, align 8, !tbaa !180
  %29 = getelementptr inbounds nuw %struct._PyUnicodeWriter, ptr %28, i32 0, i32 5
  store i64 %27, ptr %29, align 8, !tbaa !235
  br label %30

30:                                               ; preds = %26, %15
  %31 = load i32, ptr %9, align 4, !tbaa !190
  call void @llvm.lifetime.end.p0(i64 4, ptr %9) #12
  call void @llvm.lifetime.end.p0(i64 8, ptr %8) #12
  call void @llvm.lifetime.end.p0(i64 8, ptr %7) #12
  ret i32 %31
}