; Function Attrs: nounwind uwtable
define dso_local range(i32 -1, 1) i32 @PyUnicodeWriter_WriteUTF8(ptr noundef captures(none) %0, ptr noundef %1, i64 noundef %2) local_unnamed_addr #0 {
  %4 = icmp slt i64 %2, 0
  br i1 %4, label %5, label %7

5:                                                ; preds = %3
  %6 = tail call i64 @strlen(ptr noundef nonnull dereferenceable(1) %1) #42
  br label %7

7:                                                ; preds = %5, %3
  %.0 = phi i64 [ %6, %5 ], [ %2, %3 ]
  %8 = getelementptr inbounds nuw i8, ptr %0, i64 32
  %9 = load i64, ptr %8, align 8, !tbaa !225
  %10 = tail call fastcc i32 @unicode_decode_utf8_writer(ptr noundef %0, ptr noundef %1, i64 noundef %.0, i32 noundef 1, ptr noundef null, ptr noundef null)
  %11 = icmp slt i32 %10, 0
  br i1 %11, label %12, label %13

12:                                               ; preds = %7
  store i64 %9, ptr %8, align 8, !tbaa !225
  br label %13

13:                                               ; preds = %12, %7
  ret i32 %10
}